; Function Attrs: mustprogress uwtable
define hidden noundef ptr @_Z22mk_degree_shift_tacticR11ast_managerRK10params_ref(ptr noundef nonnull align 8 dereferenceable(976) %0, ptr noundef nonnull readnone align 8 captures(none) dereferenceable(8) %1) local_unnamed_addr #3 personality ptr @__gxx_personality_v0 {
  %3 = alloca %class.params_ref, align 8
  %4 = alloca %class.params_ref, align 8
  call void @llvm.lifetime.start.p0(i64 8, ptr nonnull %3) #20
  store ptr null, ptr %3, align 8, !tbaa !3
  invoke void @_ZN10params_ref8set_boolEPKcb(ptr noundef nonnull align 8 dereferenceable(8) %3, ptr noundef nonnull @.str, i1 noundef zeroext true)
          to label %5 unwind label %20

5:                                                ; preds = %2
  call void @llvm.lifetime.start.p0(i64 8, ptr nonnull %4) #20
  store ptr null, ptr %4, align 8, !tbaa !3
  %6 = invoke noundef ptr @_Z18mk_simplify_tacticR11ast_managerRK10params_ref(ptr noundef nonnull align 8 dereferenceable(976) %0, ptr noundef nonnull align 8 dereferenceable(8) %4)
          to label %7 unwind label %22

7:                                                ; preds = %5
  %8 = invoke noundef ptr @_Z12using_paramsP6tacticRK10params_ref(ptr noundef %6, ptr noundef nonnull align 8 dereferenceable(8) %3)
          to label %9 unwind label %22

9:                                                ; preds = %7
  %10 = invoke noalias noundef ptr @_ZN6memory8allocateEm(i64 noundef 24)
          to label %11 unwind label %22

11:                                               ; preds = %9
  %12 = getelementptr inbounds nuw i8, ptr %10, i64 8
  store i32 0, ptr %12, align 8, !tbaa !9
  store ptr getelementptr inbounds nuw inrange(-16, 192) (i8, ptr @_ZTV19degree_shift_tactic, i64 16), ptr %10, align 8, !tbaa !13
  %13 = invoke noalias noundef ptr @_ZN6memory8allocateEm(i64 noundef 168)
          to label %.noexc unwind label %22

.noexc:                                           ; preds = %11
  invoke void @_ZN19degree_shift_tactic3impC2ER11ast_manager(ptr noundef nonnull align 8 dereferenceable(168) %13, ptr noundef nonnull align 8 dereferenceable(976) %0)
          to label %14 unwind label %22

14:                                               ; preds = %.noexc
  %15 = getelementptr inbounds nuw i8, ptr %10, i64 16
  store ptr %13, ptr %15, align 8, !tbaa !15
  %16 = invoke noundef ptr @_Z5cleanP6tactic(ptr noundef nonnull %10)
          to label %17 unwind label %22

17:                                               ; preds = %14
  %18 = invoke noundef ptr @_Z8and_thenP6tacticS0_(ptr noundef %8, ptr noundef %16)
          to label %19 unwind label %22

19:                                               ; preds = %17
  call void @_ZN10params_refD1Ev(ptr noundef nonnull align 8 dereferenceable(8) %4) #20
  call void @llvm.lifetime.end.p0(i64 8, ptr nonnull %4) #20
  call void @_ZN10params_refD1Ev(ptr noundef nonnull align 8 dereferenceable(8) %3) #20
  call void @llvm.lifetime.end.p0(i64 8, ptr nonnull %3) #20
  ret ptr %18

20:                                               ; preds = %2
  %21 = landingpad { ptr, i32 }
          cleanup
  br label %24

22:                                               ; preds = %.noexc, %11, %17, %14, %9, %7, %5
  %23 = landingpad { ptr, i32 }
          cleanup
  call void @_ZN10params_refD1Ev(ptr noundef nonnull align 8 dereferenceable(8) %4) #20
  call void @llvm.lifetime.end.p0(i64 8, ptr nonnull %4) #20
  br label %24

24:                                               ; preds = %22, %20
  %.pn = phi { ptr, i32 } [ %23, %22 ], [ %21, %20 ]
  call void @_ZN10params_refD1Ev(ptr noundef nonnull align 8 dereferenceable(8) %3) #20
  call void @llvm.lifetime.end.p0(i64 8, ptr nonnull %3) #20
  resume { ptr, i32 } %.pn
}